target datalayout = "e-m:e-p270:32:32-p271:32:32-p272:64:64-i64:64-i128:128-f80:128-n8:16:32:64-S128"
target triple = "x86_64-pc-linux-gnu"

%class.QVariant = type { %"struct.QVariant::Private" }
%"struct.QVariant::Private" = type { %union.anon, i64 }
%union.anon = type { ptr, [16 x i8] }
%class.QModelIndex = type { i32, i32, i64, ptr }

; Function Attrs: mustprogress nounwind uwtable
define linkonce_odr void @_ZN8QVariant7PrivateUt_C2Ev(ptr noundef nonnull align 8 dereferenceable(24) %0) unnamed_addr #2 comdat align 2 {
  %2 = alloca ptr, align 8
  store ptr %0, ptr %2, align 8
  %3 = load ptr, ptr %2, align 8
  %4 = getelementptr inbounds [24 x i8], ptr %3, i64 0, i64 0
  %5 = getelementptr inbounds i8, ptr %4, i64 24
  br label %6

6:                                                ; preds = %6, %1
  %7 = phi ptr [ %4, %1 ], [ %8, %6 ]
  store i8 0, ptr %7, align 1
  %8 = getelementptr inbounds i8, ptr %7, i64 1
  %9 = icmp eq ptr %8, %5
  br i1 %9, label %10, label %6

10:                                               ; preds = %6
  ret void
}

; Function Attrs: mustprogress nounwind uwtable
define linkonce_odr void @_ZN8QVariant7PrivateC2Ev(ptr noundef nonnull align 8 dereferenceable(32) %0) unnamed_addr #2 comdat align 2 {
  %2 = alloca ptr, align 8
  store ptr %0, ptr %2, align 8
  %3 = load ptr, ptr %2, align 8
  %4 = getelementptr inbounds %"struct.QVariant::Private", ptr %3, i32 0, i32 0
  call void @_ZN8QVariant7PrivateUt_C2Ev(ptr noundef nonnull align 8 dereferenceable(24) %4) #4
  %5 = getelementptr inbounds %"struct.QVariant::Private", ptr %3, i32 0, i32 1
  %6 = load i64, ptr %5, align 8
  %7 = and i64 %6, -2
  %8 = or i64 %7, 0
  store i64 %8, ptr %5, align 8
  %9 = getelementptr inbounds %"struct.QVariant::Private", ptr %3, i32 0, i32 1
  %10 = load i64, ptr %9, align 8
  %11 = and i64 %10, -3
  %12 = or i64 %11, 2
  store i64 %12, ptr %9, align 8
  %13 = getelementptr inbounds %"struct.QVariant::Private", ptr %3, i32 0, i32 1
  %14 = load i64, ptr %13, align 8
  %15 = and i64 %14, 3
  %16 = or i64 %15, 0
  store i64 %16, ptr %13, align 8
  ret void
}

; Function Attrs: mustprogress uwtable
define linkonce_odr noundef ptr @_ZNK8QVariant5valueIPvEET_v(ptr noundef nonnull align 8 dereferenceable(32) %0) #0 comdat align 2 {
  %2 = alloca ptr, align 8
  store ptr %0, ptr %2, align 8
  %3 = load ptr, ptr %2, align 8
  %4 = call noundef ptr @_Z13qvariant_castIPvET_RK8QVariant(ptr noundef nonnull align 8 dereferenceable(32) %3)
  ret ptr %4
}

; Function Attrs: mustprogress nounwind uwtable
define linkonce_odr void @_ZN8QVariantC2Ev(ptr noundef nonnull align 8 dereferenceable(32) %0) unnamed_addr #2 comdat align 2 {
  %2 = alloca ptr, align 8
  store ptr %0, ptr %2, align 8
  %3 = load ptr, ptr %2, align 8
  %4 = getelementptr inbounds %class.QVariant, ptr %3, i32 0, i32 0
  call void @_ZN8QVariant7PrivateC2Ev(ptr noundef nonnull align 8 dereferenceable(32) %4) #4
  ret void
}

; Function Attrs: mustprogress uwtable
define linkonce_odr noundef ptr @_ZN14VariantPointerI16_voip_calls_infoE5asPtrE8QVariant(ptr noundef %0) #0 comdat align 2 {
  %2 = alloca ptr, align 8
  store ptr %0, ptr %2, align 8
  %3 = call noundef ptr @_ZNK8QVariant5valueIPvEET_v(ptr noundef nonnull align 8 dereferenceable(32) %0)
  ret ptr %3
}

; Function Attrs: mustprogress uwtable
define linkonce_odr void @_ZNK11QModelIndex4dataEi(ptr dead_on_unwind noalias writable sret(%class.QVariant) align 8 %0, ptr noundef nonnull align 8 dereferenceable(24) %1, i32 noundef %2) #0 comdat align 2 {
  %4 = alloca ptr, align 8
  %5 = alloca ptr, align 8
  %6 = alloca i32, align 4
  store ptr %0, ptr %4, align 8
  store ptr %1, ptr %5, align 8
  store i32 %2, ptr %6, align 4
  %7 = load ptr, ptr %5, align 8
  %8 = getelementptr inbounds %class.QModelIndex, ptr %7, i32 0, i32 3
  %9 = load ptr, ptr %8, align 8
  %10 = icmp ne ptr %9, null
  br i1 %10, label %11, label %18

11:                                               ; preds = %3
  %12 = getelementptr inbounds %class.QModelIndex, ptr %7, i32 0, i32 3
  %13 = load ptr, ptr %12, align 8
  %14 = load i32, ptr %6, align 4
  %15 = load ptr, ptr %13, align 8
  %16 = getelementptr inbounds ptr, ptr %15, i64 18
  %17 = load ptr, ptr %16, align 8
  call void %17(ptr dead_on_unwind writable sret(%class.QVariant) align 8 %0, ptr noundef nonnull align 8 dereferenceable(16) %13, ptr noundef nonnull align 8 dereferenceable(24) %7, i32 noundef %14)
  br label %19

18:                                               ; preds = %3
  call void @_ZN8QVariantC2Ev(ptr noundef nonnull align 8 dereferenceable(32) %0) #4
  br label %19

19:                                               ; preds = %18, %11
  ret void
}

; Function Attrs: mustprogress uwtable
define noundef ptr @_ZN18VoipCallsInfoModel15indexToCallInfoERK11QModelIndex(ptr noundef nonnull align 8 dereferenceable(24) %0) #0 align 2 personality ptr @__gxx_personality_v0 {
  %2 = alloca ptr, align 8
  %3 = alloca %class.QVariant, align 8
  %4 = alloca ptr, align 8
  %5 = alloca i32, align 4
  store ptr %0, ptr %2, align 8
  %6 = load ptr, ptr %2, align 8
  call void @_ZNK11QModelIndex4dataEi(ptr dead_on_unwind writable sret(%class.QVariant) align 8 %3, ptr noundef nonnull align 8 dereferenceable(24) %6, i32 noundef 256)
  %7 = invoke noundef ptr @_ZN14VariantPointerI16_voip_calls_infoE5asPtrE8QVariant(ptr noundef %3)
          to label %8 unwind label %9

8:                                                ; preds = %1
  call void @_ZN8QVariantD1Ev(ptr noundef nonnull align 8 dereferenceable(32) %3) #4
  ret ptr %7

9:                                                ; preds = %1
  %10 = landingpad { ptr, i32 }
          cleanup
  %11 = extractvalue { ptr, i32 } %10, 0
  store ptr %11, ptr %4, align 8
  %12 = extractvalue { ptr, i32 } %10, 1
  store i32 %12, ptr %5, align 4
  call void @_ZN8QVariantD1Ev(ptr noundef nonnull align 8 dereferenceable(32) %3) #4
  br label %13

13:                                               ; preds = %9
  %14 = load ptr, ptr %4, align 8
  %15 = load i32, ptr %5, align 4
  %16 = insertvalue { ptr, i32 } poison, ptr %14, 0
  %17 = insertvalue { ptr, i32 } %16, i32 %15, 1
  resume { ptr, i32 } %17
}