; Function Attrs: mustprogress uwtable
define noundef ptr @_ZN18VoipCallsInfoModel15indexToCallInfoERK11QModelIndex(ptr noundef nonnull align 8 dereferenceable(24) %0) local_unnamed_addr #0 align 2 personality ptr @__gxx_personality_v0 {
  %2 = alloca %class.QVariant, align 8
  tail call void @llvm.experimental.noalias.scope.decl(metadata !4)
  %3 = getelementptr inbounds i8, ptr %0, i64 16
  %4 = load ptr, ptr %3, align 8, !noalias !4
  %.not.i = icmp eq ptr %4, null
  br i1 %.not.i, label %9, label %5

5:                                                ; preds = %1
  %6 = load ptr, ptr %4, align 8, !noalias !4
  %7 = getelementptr inbounds i8, ptr %6, i64 144
  %8 = load ptr, ptr %7, align 8, !noalias !4
  call void %8(ptr dead_on_unwind nonnull writable sret(%class.QVariant) align 8 %2, ptr noundef nonnull align 8 dereferenceable(16) %4, ptr noundef nonnull align 8 dereferenceable(24) %0, i32 noundef 256)
  br label %_ZNK11QModelIndex4dataEi.exit

9:                                                ; preds = %1
  call void @llvm.memset.p0.i64(ptr noundef nonnull align 8 dereferenceable(24) %2, i8 0, i64 24, i1 false), !alias.scope !4
  %10 = getelementptr inbounds i8, ptr %2, i64 24
  store i64 2, ptr %10, align 8, !alias.scope !4
  br label %_ZNK11QModelIndex4dataEi.exit

_ZNK11QModelIndex4dataEi.exit:                    ; preds = %5, %9
  %11 = invoke noundef ptr @_Z13qvariant_castIPvET_RK8QVariant(ptr noundef nonnull align 8 dereferenceable(32) %2)
          to label %_ZN14VariantPointerI16_voip_calls_infoE5asPtrE8QVariant.exit unwind label %12

_ZN14VariantPointerI16_voip_calls_infoE5asPtrE8QVariant.exit: ; preds = %_ZNK11QModelIndex4dataEi.exit
  call void @_ZN8QVariantD1Ev(ptr noundef nonnull align 8 dereferenceable(32) %2) #16
  ret ptr %11

12:                                               ; preds = %_ZNK11QModelIndex4dataEi.exit
  %13 = landingpad { ptr, i32 }
          cleanup
  call void @_ZN8QVariantD1Ev(ptr noundef nonnull align 8 dereferenceable(32) %2) #16
  resume { ptr, i32 } %13
}